target datalayout = "e-m:e-p270:32:32-p271:32:32-p272:64:64-i64:64-i128:128-f80:128-n8:16:32:64-S128"
target triple = "x86_64-pc-linux-gnu"

%struct._ndmp_conv_data_t = type { i8, ptr, ptr, ptr, ptr, ptr, ptr }

@hf_ndmp_file_node = internal global i32 0, align 4
@hf_ndmp_file_fh_info = internal global i32 0, align 4
@hf_ndmp_bu_original_path = internal global i32 0, align 4
@hf_ndmp_bu_destination_dir = internal global i32 0, align 4
@hf_ndmp_bu_new_name = internal global i32 0, align 4
@hf_ndmp_bu_other_name = internal global i32 0, align 4
@ndmp_default_protocol_version = internal global i32 4, align 4
@ndmp_conv_data = internal global ptr null, align 8

; Function Attrs: nounwind null_pointer_is_valid sspstrong uwtable
define internal zeroext i8 @get_ndmp_protocol_version() #8 {
  %1 = alloca i8, align 1
  %2 = load ptr, ptr @ndmp_conv_data, align 8
  %3 = icmp ne ptr %2, null
  br i1 %3, label %4, label %10

4:                                                ; preds = %0
  %5 = load ptr, ptr @ndmp_conv_data, align 8
  %6 = getelementptr inbounds nuw %struct._ndmp_conv_data_t, ptr %5, i32 0, i32 0
  %7 = load i8, ptr %6, align 8
  %8 = zext i8 %7 to i32
  %9 = icmp eq i32 %8, 0
  br i1 %9, label %10, label %13

10:                                               ; preds = %4, %0
  %11 = load i32, ptr @ndmp_default_protocol_version, align 4
  %12 = trunc i32 %11 to i8
  store i8 %12, ptr %1, align 1
  br label %17

13:                                               ; preds = %4
  %14 = load ptr, ptr @ndmp_conv_data, align 8
  %15 = getelementptr inbounds nuw %struct._ndmp_conv_data_t, ptr %14, i32 0, i32 0
  %16 = load i8, ptr %15, align 8
  store i8 %16, ptr %1, align 1
  br label %17

17:                                               ; preds = %13, %10
  %18 = load i8, ptr %1, align 1
  ret i8 %18
}

; Function Attrs: null_pointer_is_valid sspstrong uwtable
define internal i32 @dissect_nlist(ptr noundef %0, i32 noundef %1, ptr noundef %2, ptr noundef %3, ptr noundef %4) #0 {
  %6 = alloca ptr, align 8
  %7 = alloca i32, align 4
  %8 = alloca ptr, align 8
  %9 = alloca ptr, align 8
  %10 = alloca ptr, align 8
  store ptr %0, ptr %6, align 8
  store i32 %1, ptr %7, align 4
  store ptr %2, ptr %8, align 8
  store ptr %3, ptr %9, align 8
  store ptr %4, ptr %10, align 8
  %11 = load ptr, ptr %6, align 8
  %12 = load ptr, ptr %9, align 8
  %13 = load i32, ptr @hf_ndmp_bu_original_path, align 4
  %14 = load i32, ptr %7, align 4
  %15 = call i32 @dissect_rpc_string(ptr noundef %11, ptr noundef %12, i32 noundef %13, i32 noundef %14, ptr noundef null)
  store i32 %15, ptr %7, align 4
  %16 = load ptr, ptr %6, align 8
  %17 = load ptr, ptr %9, align 8
  %18 = load i32, ptr @hf_ndmp_bu_destination_dir, align 4
  %19 = load i32, ptr %7, align 4
  %20 = call i32 @dissect_rpc_string(ptr noundef %16, ptr noundef %17, i32 noundef %18, i32 noundef %19, ptr noundef null)
  store i32 %20, ptr %7, align 4
  %21 = call zeroext i8 @get_ndmp_protocol_version()
  %22 = zext i8 %21 to i32
  %23 = icmp eq i32 %22, 2
  br i1 %23, label %24, label %27

24:                                               ; preds = %5
  %25 = load i32, ptr %7, align 4
  %26 = add i32 %25, 4
  store i32 %26, ptr %7, align 4
  br label %45

27:                                               ; preds = %5
  %28 = load ptr, ptr %6, align 8
  %29 = load ptr, ptr %9, align 8
  %30 = load i32, ptr @hf_ndmp_bu_new_name, align 4
  %31 = load i32, ptr %7, align 4
  %32 = call i32 @dissect_rpc_string(ptr noundef %28, ptr noundef %29, i32 noundef %30, i32 noundef %31, ptr noundef null)
  store i32 %32, ptr %7, align 4
  %33 = load ptr, ptr %6, align 8
  %34 = load ptr, ptr %9, align 8
  %35 = load i32, ptr @hf_ndmp_bu_other_name, align 4
  %36 = load i32, ptr %7, align 4
  %37 = call i32 @dissect_rpc_string(ptr noundef %33, ptr noundef %34, i32 noundef %35, i32 noundef %36, ptr noundef null)
  store i32 %37, ptr %7, align 4
  %38 = load ptr, ptr %9, align 8
  %39 = load i32, ptr @hf_ndmp_file_node, align 4
  %40 = load ptr, ptr %6, align 8
  %41 = load i32, ptr %7, align 4
  %42 = call ptr @proto_tree_add_item(ptr noundef %38, i32 noundef %39, ptr noundef %40, i32 noundef %41, i32 noundef 8, i32 noundef 0)
  %43 = load i32, ptr %7, align 4
  %44 = add i32 %43, 8
  store i32 %44, ptr %7, align 4
  br label %45

45:                                               ; preds = %27, %24
  %46 = load ptr, ptr %9, align 8
  %47 = load i32, ptr @hf_ndmp_file_fh_info, align 4
  %48 = load ptr, ptr %6, align 8
  %49 = load i32, ptr %7, align 4
  %50 = call ptr @proto_tree_add_item(ptr noundef %46, i32 noundef %47, ptr noundef %48, i32 noundef %49, i32 noundef 8, i32 noundef 0)
  %51 = load i32, ptr %7, align 4
  %52 = add i32 %51, 8
  store i32 %52, ptr %7, align 4
  %53 = load i32, ptr %7, align 4
  ret i32 %53
}