; Function Attrs: null_pointer_is_valid sspstrong uwtable
define internal noundef i32 @dissect_nlist(ptr noundef %0, i32 noundef %1, ptr readnone captures(none) %2, ptr noundef %3, ptr readnone captures(none) %4) #0 {
  %6 = load i32, ptr @hf_ndmp_bu_original_path, align 4
  %7 = tail call i32 @dissect_rpc_string(ptr noundef %0, ptr noundef %3, i32 noundef %6, i32 noundef %1, ptr noundef null)
  %8 = load i32, ptr @hf_ndmp_bu_destination_dir, align 4
  %9 = tail call i32 @dissect_rpc_string(ptr noundef %0, ptr noundef %3, i32 noundef %8, i32 noundef %7, ptr noundef null)
  %10 = load ptr, ptr @ndmp_conv_data, align 8
  %.not.i = icmp eq ptr %10, null
  br i1 %.not.i, label %14, label %11

11:                                               ; preds = %5
  %12 = load i8, ptr %10, align 8
  %13 = icmp eq i8 %12, 0
  br i1 %13, label %14, label %get_ndmp_protocol_version.exit

14:                                               ; preds = %11, %5
  %15 = load i32, ptr @ndmp_default_protocol_version, align 4
  %16 = trunc i32 %15 to i8
  br label %get_ndmp_protocol_version.exit

get_ndmp_protocol_version.exit:                   ; preds = %11, %14
  %.0.i = phi i8 [ %16, %14 ], [ %12, %11 ]
  %17 = icmp eq i8 %.0.i, 2
  br i1 %17, label %18, label %20

18:                                               ; preds = %get_ndmp_protocol_version.exit
  %19 = add i32 %9, 4
  br label %28

20:                                               ; preds = %get_ndmp_protocol_version.exit
  %21 = load i32, ptr @hf_ndmp_bu_new_name, align 4
  %22 = tail call i32 @dissect_rpc_string(ptr noundef %0, ptr noundef %3, i32 noundef %21, i32 noundef %9, ptr noundef null)
  %23 = load i32, ptr @hf_ndmp_bu_other_name, align 4
  %24 = tail call i32 @dissect_rpc_string(ptr noundef %0, ptr noundef %3, i32 noundef %23, i32 noundef %22, ptr noundef null)
  %25 = load i32, ptr @hf_ndmp_file_node, align 4
  %26 = tail call ptr @proto_tree_add_item(ptr noundef %3, i32 noundef %25, ptr noundef %0, i32 noundef %24, i32 noundef 8, i32 noundef 0)
  %27 = add i32 %24, 8
  br label %28

28:                                               ; preds = %20, %18
  %.0 = phi i32 [ %19, %18 ], [ %27, %20 ]
  %29 = load i32, ptr @hf_ndmp_file_fh_info, align 4
  %30 = tail call ptr @proto_tree_add_item(ptr noundef %3, i32 noundef %29, ptr noundef %0, i32 noundef %.0, i32 noundef 8, i32 noundef 0)
  %31 = add i32 %.0, 8
  ret i32 %31
}